target datalayout = "e-m:e-p270:32:32-p271:32:32-p272:64:64-i64:64-i128:128-f80:128-n8:16:32:64-S128"
target triple = "x86_64-pc-linux-gnu"

%"class.std::__cxx11::basic_string" = type { %"struct.std::__cxx11::basic_string<char>::_Alloc_hider", i64, %union.anon }
%"struct.std::__cxx11::basic_string<char>::_Alloc_hider" = type { ptr }
%union.anon = type { i64, [8 x i8] }
%"class.cv::Exception" = type <{ %"class.std::exception", %"class.std::__cxx11::basic_string", i32, [4 x i8], %"class.std::__cxx11::basic_string", %"class.std::__cxx11::basic_string", %"class.std::__cxx11::basic_string", i32, [4 x i8] }>
%"class.std::exception" = type { ptr }
%"class.cvtest::BaseTest" = type { ptr, i32, %"class.std::__cxx11::basic_string", ptr }
%"class.cvtest::BadArgTest" = type <{ %"class.cvtest::BaseTest", i32, [4 x i8] }>

@_ZTIN2cv9ExceptionE = external constant ptr
@.str.25 = private unnamed_addr constant [1 x i8] zeroinitializer, align 1
@.str.34 = private unnamed_addr constant [85 x i8] c"%s  (test case #%d): unknown exception was thrown (the function has likely crashed)\0A\00", align 1
@.str.35 = private unnamed_addr constant [73 x i8] c"%s (test case #%d): the error code %d is different from the expected %d\0A\00", align 1
@.str.36 = private unnamed_addr constant [55 x i8] c"%s  (test case #%d): no expected exception was thrown\0A\00", align 1

; Function Attrs: mustprogress nounwind uwtable
define available_externally noundef ptr @_ZNKSt7__cxx1112basic_stringIcSt11char_traitsIcESaIcEE7_M_dataEv(ptr noundef nonnull align 8 dereferenceable(32) %0) #7 align 2 {
  %2 = alloca ptr, align 8
  store ptr %0, ptr %2, align 8, !tbaa !23
  %3 = load ptr, ptr %2, align 8
  %4 = getelementptr inbounds nuw %"class.std::__cxx11::basic_string", ptr %3, i32 0, i32 0
  %5 = getelementptr inbounds nuw %"struct.std::__cxx11::basic_string<char>::_Alloc_hider", ptr %4, i32 0, i32 0
  %6 = load ptr, ptr %5, align 8, !tbaa !200
  ret ptr %6
}

; Function Attrs: mustprogress nounwind uwtable
define available_externally noundef ptr @_ZNKSt7__cxx1112basic_stringIcSt11char_traitsIcESaIcEE5c_strEv(ptr noundef nonnull align 8 dereferenceable(32) %0) #7 align 2 {
  %2 = alloca ptr, align 8
  store ptr %0, ptr %2, align 8, !tbaa !23
  %3 = load ptr, ptr %2, align 8
  %4 = call noundef ptr @_ZNKSt7__cxx1112basic_stringIcSt11char_traitsIcESaIcEE7_M_dataEv(ptr noundef nonnull align 8 dereferenceable(32) %3)
  ret ptr %4
}

; Function Attrs: mustprogress uwtable
define hidden noundef i32 @_ZN6cvtest10BadArgTest13run_test_caseEiRKNSt7__cxx1112basic_stringIcSt11char_traitsIcESaIcEEE(ptr noundef nonnull align 8 dereferenceable(60) %0, i32 noundef %1, ptr noundef nonnull align 8 dereferenceable(32) %2) unnamed_addr #6 align 2 personality ptr @__gxx_personality_v0 {
  %4 = alloca ptr, align 8
  %5 = alloca i32, align 4
  %6 = alloca ptr, align 8
  %7 = alloca i32, align 4
  %8 = alloca i8, align 1
  %9 = alloca ptr, align 8
  %10 = alloca ptr, align 8
  %11 = alloca i32, align 4
  %12 = alloca ptr, align 8
  store ptr %0, ptr %4, align 8, !tbaa !76
  store i32 %1, ptr %5, align 4, !tbaa !8
  store ptr %2, ptr %6, align 8, !tbaa !23
  %13 = load ptr, ptr %4, align 8
  call void @llvm.lifetime.start.p0(i64 4, ptr %7) #3
  store i32 0, ptr %7, align 4, !tbaa !8
  call void @llvm.lifetime.start.p0(i64 1, ptr %8) #3
  store i8 0, ptr %8, align 1, !tbaa !15
  call void @llvm.lifetime.start.p0(i64 8, ptr %9) #3
  %14 = load ptr, ptr %6, align 8, !tbaa !23
  %15 = call noundef ptr @_ZNKSt7__cxx1112basic_stringIcSt11char_traitsIcESaIcEE5c_strEv(ptr noundef nonnull align 8 dereferenceable(32) %14) #3
  %16 = icmp ne ptr %15, null
  br i1 %16, label %17, label %20

17:                                               ; preds = %3
  %18 = load ptr, ptr %6, align 8, !tbaa !23
  %19 = call noundef ptr @_ZNKSt7__cxx1112basic_stringIcSt11char_traitsIcESaIcEE5c_strEv(ptr noundef nonnull align 8 dereferenceable(32) %18) #3
  br label %21

20:                                               ; preds = %3
  br label %21

21:                                               ; preds = %20, %17
  %22 = phi ptr [ %19, %17 ], [ @.str.25, %20 ]
  store ptr %22, ptr %9, align 8, !tbaa !25
  %23 = load ptr, ptr %13, align 8, !tbaa !17
  %24 = getelementptr inbounds ptr, ptr %23, i64 10
  %25 = load ptr, ptr %24, align 8
  invoke void %25(ptr noundef nonnull align 8 dereferenceable(60) %13)
          to label %26 unwind label %27

26:                                               ; preds = %21
  br label %89

27:                                               ; preds = %21
  %28 = landingpad { ptr, i32 }
          catch ptr @_ZTIN2cv9ExceptionE
          catch ptr null
  %29 = extractvalue { ptr, i32 } %28, 0
  store ptr %29, ptr %10, align 8
  %30 = extractvalue { ptr, i32 } %28, 1
  store i32 %30, ptr %11, align 4
  br label %31

31:                                               ; preds = %27
  %32 = load i32, ptr %11, align 4
  %33 = call i32 @llvm.eh.typeid.for.p0(ptr @_ZTIN2cv9ExceptionE) #3
  %34 = icmp eq i32 %32, %33
  br i1 %34, label %35, label %67

35:                                               ; preds = %31
  call void @llvm.lifetime.start.p0(i64 8, ptr %12) #3
  %36 = load ptr, ptr %10, align 8
  %37 = call ptr @__cxa_begin_catch(ptr %36) #3
  store ptr %37, ptr %12, align 8
  store i8 1, ptr %8, align 1, !tbaa !15
  %38 = load ptr, ptr %12, align 8, !tbaa !45
  %39 = getelementptr inbounds nuw %"class.cv::Exception", ptr %38, i32 0, i32 2
  %40 = load i32, ptr %39, align 8, !tbaa !47
  %41 = load i32, ptr %5, align 4, !tbaa !8
  %42 = icmp ne i32 %40, %41
  br i1 %42, label %43, label %88

43:                                               ; preds = %35
  %44 = load ptr, ptr %12, align 8, !tbaa !45
  %45 = getelementptr inbounds nuw %"class.cv::Exception", ptr %44, i32 0, i32 2
  %46 = load i32, ptr %45, align 8, !tbaa !47
  %47 = icmp ne i32 %46, -2
  br i1 %47, label %48, label %88

48:                                               ; preds = %43
  %49 = load ptr, ptr %12, align 8, !tbaa !45
  %50 = getelementptr inbounds nuw %"class.cv::Exception", ptr %49, i32 0, i32 2
  %51 = load i32, ptr %50, align 8, !tbaa !47
  %52 = icmp ne i32 %51, -215
  br i1 %52, label %53, label %88

53:                                               ; preds = %48
  %54 = getelementptr inbounds nuw %"class.cvtest::BaseTest", ptr %13, i32 0, i32 3
  %55 = load ptr, ptr %54, align 8, !tbaa !36
  %56 = load ptr, ptr %9, align 8, !tbaa !25
  %57 = getelementptr inbounds nuw %"class.cvtest::BadArgTest", ptr %13, i32 0, i32 1
  %58 = load i32, ptr %57, align 8, !tbaa !78
  %59 = load ptr, ptr %12, align 8, !tbaa !45
  %60 = getelementptr inbounds nuw %"class.cv::Exception", ptr %59, i32 0, i32 2
  %61 = load i32, ptr %60, align 8, !tbaa !47
  %62 = load i32, ptr %5, align 4, !tbaa !8
  %63 = load ptr, ptr %55, align 8, !tbaa !17
  %64 = getelementptr inbounds ptr, ptr %63, i64 3
  %65 = load ptr, ptr %64, align 8
  invoke void (ptr, i32, ptr, ...) %65(ptr noundef nonnull align 8 dereferenceable(280) %55, i32 noundef 2, ptr noundef @.str.35, ptr noundef %56, i32 noundef %58, i32 noundef %61, i32 noundef %62)
          to label %66 unwind label %84

66:                                               ; preds = %53
  store i32 1, ptr %7, align 4, !tbaa !8
  br label %88

67:                                               ; preds = %31
  %68 = load ptr, ptr %10, align 8
  %69 = call ptr @__cxa_begin_catch(ptr %68) #3
  store i8 1, ptr %8, align 1, !tbaa !15
  %70 = getelementptr inbounds nuw %"class.cvtest::BaseTest", ptr %13, i32 0, i32 3
  %71 = load ptr, ptr %70, align 8, !tbaa !36
  %72 = load ptr, ptr %9, align 8, !tbaa !25
  %73 = getelementptr inbounds nuw %"class.cvtest::BadArgTest", ptr %13, i32 0, i32 1
  %74 = load i32, ptr %73, align 8, !tbaa !78
  %75 = load ptr, ptr %71, align 8, !tbaa !17
  %76 = getelementptr inbounds ptr, ptr %75, i64 3
  %77 = load ptr, ptr %76, align 8
  invoke void (ptr, i32, ptr, ...) %77(ptr noundef nonnull align 8 dereferenceable(280) %71, i32 noundef 2, ptr noundef @.str.34, ptr noundef %72, i32 noundef %74)
          to label %78 unwind label %79

78:                                               ; preds = %67
  store i32 1, ptr %7, align 4, !tbaa !8
  call void @__cxa_end_catch()
  br label %89

79:                                               ; preds = %67
  %80 = landingpad { ptr, i32 }
          cleanup
  %81 = extractvalue { ptr, i32 } %80, 0
  store ptr %81, ptr %10, align 8
  %82 = extractvalue { ptr, i32 } %80, 1
  store i32 %82, ptr %11, align 4
  invoke void @__cxa_end_catch()
          to label %83 unwind label %113

83:                                               ; preds = %79
  br label %107

84:                                               ; preds = %53
  %85 = landingpad { ptr, i32 }
          cleanup
  %86 = extractvalue { ptr, i32 } %85, 0
  store ptr %86, ptr %10, align 8
  %87 = extractvalue { ptr, i32 } %85, 1
  store i32 %87, ptr %11, align 4
  invoke void @__cxa_end_catch()
          to label %101 unwind label %113

88:                                               ; preds = %66, %48, %43, %35
  call void @__cxa_end_catch()
  call void @llvm.lifetime.end.p0(i64 8, ptr %12) #3
  br label %89

89:                                               ; preds = %88, %78, %26
  %90 = load i8, ptr %8, align 1, !tbaa !15, !range !19, !noundef !20
  %91 = trunc i8 %90 to i1
  br i1 %91, label %102, label %92

92:                                               ; preds = %89
  %93 = getelementptr inbounds nuw %"class.cvtest::BaseTest", ptr %13, i32 0, i32 3
  %94 = load ptr, ptr %93, align 8, !tbaa !36
  %95 = load ptr, ptr %9, align 8, !tbaa !25
  %96 = getelementptr inbounds nuw %"class.cvtest::BadArgTest", ptr %13, i32 0, i32 1
  %97 = load i32, ptr %96, align 8, !tbaa !78
  %98 = load ptr, ptr %94, align 8, !tbaa !17
  %99 = getelementptr inbounds ptr, ptr %98, i64 3
  %100 = load ptr, ptr %99, align 8
  call void (ptr, i32, ptr, ...) %100(ptr noundef nonnull align 8 dereferenceable(280) %94, i32 noundef 2, ptr noundef @.str.36, ptr noundef %95, i32 noundef %97)
  store i32 1, ptr %7, align 4, !tbaa !8
  br label %102

101:                                              ; preds = %84
  call void @llvm.lifetime.end.p0(i64 8, ptr %12) #3
  br label %107

102:                                              ; preds = %92, %89
  %103 = getelementptr inbounds nuw %"class.cvtest::BadArgTest", ptr %13, i32 0, i32 1
  %104 = load i32, ptr %103, align 8, !tbaa !78
  %105 = add nsw i32 %104, 1
  store i32 %105, ptr %103, align 8, !tbaa !78
  %106 = load i32, ptr %7, align 4, !tbaa !8
  call void @llvm.lifetime.end.p0(i64 8, ptr %9) #3
  call void @llvm.lifetime.end.p0(i64 1, ptr %8) #3
  call void @llvm.lifetime.end.p0(i64 4, ptr %7) #3
  ret i32 %106

107:                                              ; preds = %101, %83
  call void @llvm.lifetime.end.p0(i64 8, ptr %9) #3
  call void @llvm.lifetime.end.p0(i64 1, ptr %8) #3
  call void @llvm.lifetime.end.p0(i64 4, ptr %7) #3
  br label %108

108:                                              ; preds = %107
  %109 = load ptr, ptr %10, align 8
  %110 = load i32, ptr %11, align 4
  %111 = insertvalue { ptr, i32 } poison, ptr %109, 0
  %112 = insertvalue { ptr, i32 } %111, i32 %110, 1
  resume { ptr, i32 } %112

113:                                              ; preds = %84, %79
  %114 = landingpad { ptr, i32 }
          catch ptr null
  %115 = extractvalue { ptr, i32 } %114, 0
  call void @__clang_call_terminate(ptr %115) #25
  unreachable
}