; Function Attrs: mustprogress uwtable
define hidden noundef range(i32 0, 2) i32 @_ZN6cvtest10BadArgTest13run_test_caseEiRKNSt7__cxx1112basic_stringIcSt11char_traitsIcESaIcEEE(ptr noundef nonnull align 8 dereferenceable(60) %0, i32 noundef %1, ptr noundef nonnull readonly align 8 captures(none) dereferenceable(32) %2) unnamed_addr #4 align 2 personality ptr @__gxx_personality_v0 {
  %4 = load ptr, ptr %2, align 8, !tbaa !15
  %.not = icmp eq ptr %4, null
  %spec.select = select i1 %.not, ptr @.str.25, ptr %4
  %5 = load ptr, ptr %0, align 8, !tbaa !3
  %6 = getelementptr inbounds nuw i8, ptr %5, i64 80
  %7 = load ptr, ptr %6, align 8
  invoke void %7(ptr noundef nonnull align 8 dereferenceable(60) %0)
          to label %40 unwind label %8

8:                                                ; preds = %3
  %9 = landingpad { ptr, i32 }
          catch ptr @_ZTIN2cv9ExceptionE
          catch ptr null
  %10 = extractvalue { ptr, i32 } %9, 0
  %11 = extractvalue { ptr, i32 } %9, 1
  %12 = tail call i32 @llvm.eh.typeid.for.p0(ptr nonnull @_ZTIN2cv9ExceptionE) #41
  %13 = icmp eq i32 %11, %12
  %14 = tail call ptr @__cxa_begin_catch(ptr %10) #41
  br i1 %13, label %15, label %26

15:                                               ; preds = %8
  %16 = getelementptr inbounds nuw i8, ptr %14, i64 40
  %17 = load i32, ptr %16, align 8, !tbaa !28
  %.fr = freeze i32 %17
  %.not23 = icmp eq i32 %.fr, %1
  br i1 %.not23, label %39, label %switch.early.test

switch.early.test:                                ; preds = %15
  switch i32 %.fr, label %18 [
    i32 -2, label %39
    i32 -215, label %39
  ]

18:                                               ; preds = %switch.early.test
  %19 = getelementptr inbounds nuw i8, ptr %0, i64 48
  %20 = load ptr, ptr %19, align 8, !tbaa !19
  %21 = getelementptr inbounds nuw i8, ptr %0, i64 56
  %22 = load i32, ptr %21, align 8, !tbaa !83
  %23 = load ptr, ptr %20, align 8, !tbaa !3
  %24 = getelementptr inbounds nuw i8, ptr %23, i64 24
  %25 = load ptr, ptr %24, align 8
  invoke void (ptr, i32, ptr, ...) %25(ptr noundef nonnull align 8 dereferenceable(280) %20, i32 noundef 2, ptr noundef nonnull @.str.35, ptr noundef nonnull %spec.select, i32 noundef %22, i32 noundef %.fr, i32 noundef %1)
          to label %39 unwind label %37

26:                                               ; preds = %8
  %27 = getelementptr inbounds nuw i8, ptr %0, i64 48
  %28 = load ptr, ptr %27, align 8, !tbaa !19
  %29 = getelementptr inbounds nuw i8, ptr %0, i64 56
  %30 = load i32, ptr %29, align 8, !tbaa !83
  %31 = load ptr, ptr %28, align 8, !tbaa !3
  %32 = getelementptr inbounds nuw i8, ptr %31, i64 24
  %33 = load ptr, ptr %32, align 8
  invoke void (ptr, i32, ptr, ...) %33(ptr noundef nonnull align 8 dereferenceable(280) %28, i32 noundef 2, ptr noundef nonnull @.str.34, ptr noundef nonnull %spec.select, i32 noundef %30)
          to label %34 unwind label %35

34:                                               ; preds = %26
  tail call void @__cxa_end_catch()
  br label %.thread

35:                                               ; preds = %26
  %36 = landingpad { ptr, i32 }
          cleanup
  invoke void @__cxa_end_catch()
          to label %51 unwind label %52

37:                                               ; preds = %18
  %38 = landingpad { ptr, i32 }
          cleanup
  invoke void @__cxa_end_catch()
          to label %51 unwind label %52

39:                                               ; preds = %switch.early.test, %switch.early.test, %15, %18
  %.1 = phi i32 [ 0, %switch.early.test ], [ 1, %18 ], [ 0, %15 ], [ 0, %switch.early.test ]
  tail call void @__cxa_end_catch()
  br label %.thread

40:                                               ; preds = %3
  %41 = getelementptr inbounds nuw i8, ptr %0, i64 48
  %42 = load ptr, ptr %41, align 8, !tbaa !19
  %43 = getelementptr inbounds nuw i8, ptr %0, i64 56
  %44 = load i32, ptr %43, align 8, !tbaa !83
  %45 = load ptr, ptr %42, align 8, !tbaa !3
  %46 = getelementptr inbounds nuw i8, ptr %45, i64 24
  %47 = load ptr, ptr %46, align 8
  tail call void (ptr, i32, ptr, ...) %47(ptr noundef nonnull align 8 dereferenceable(280) %42, i32 noundef 2, ptr noundef nonnull @.str.36, ptr noundef nonnull %spec.select, i32 noundef %44)
  br label %.thread

.thread:                                          ; preds = %34, %39, %40
  %.2 = phi i32 [ 1, %40 ], [ 1, %34 ], [ %.1, %39 ]
  %48 = getelementptr inbounds nuw i8, ptr %0, i64 56
  %49 = load i32, ptr %48, align 8, !tbaa !83
  %50 = add nsw i32 %49, 1
  store i32 %50, ptr %48, align 8, !tbaa !83
  ret i32 %.2

51:                                               ; preds = %37, %35
  %.pn = phi { ptr, i32 } [ %36, %35 ], [ %38, %37 ]
  resume { ptr, i32 } %.pn

52:                                               ; preds = %37, %35
  %53 = landingpad { ptr, i32 }
          catch ptr null
  %54 = extractvalue { ptr, i32 } %53, 0
  tail call void @__clang_call_terminate(ptr %54) #44
  unreachable
}